target datalayout = "e-m:e-p270:32:32-p271:32:32-p272:64:64-i64:64-i128:128-f80:128-n8:16:32:64-S128"
target triple = "x86_64-pc-linux-gnu"

%struct.Curl_multi = type { i32, i32, i32, %struct.Curl_llist, %struct.Curl_llist, %struct.Curl_llist, %struct.Curl_llist, i64, ptr, ptr, ptr, ptr, %struct.Curl_hash, ptr, %struct.PslCache, ptr, ptr, i64, ptr, i64, ptr, i64, %struct.Curl_hash, %struct.Curl_hash, %struct.cpool, i64, i64, ptr, ptr, i64, %struct.curltime, [2 x i32], i32, i32, i8, i8 }
%struct.Curl_llist = type { ptr, ptr, ptr, i64 }
%struct.PslCache = type { ptr, i64, i8 }
%struct.Curl_hash = type { ptr, ptr, ptr, ptr, i64, i64 }
%struct.cpool = type { %struct.Curl_hash, i64, i64, i64, %struct.curltime, %struct.Curl_llist, ptr, ptr, ptr, ptr, i8 }
%struct.curltime = type { i64, i32 }
%struct.Curl_tree = type { ptr, ptr, ptr, ptr, %struct.curltime, ptr }

@multi_timeout.tv_zero = internal constant { i64, i32, [4 x i8] } zeroinitializer, align 8

; Function Attrs: nounwind uwtable
define internal i32 @multi_timeout(ptr noundef %0, ptr noundef %1, ptr noundef %2) #0 {
  %4 = alloca i32, align 4
  %5 = alloca ptr, align 8
  %6 = alloca ptr, align 8
  %7 = alloca ptr, align 8
  %8 = alloca %struct.curltime, align 8
  %9 = alloca i64, align 8
  store ptr %0, ptr %5, align 8, !tbaa !9
  store ptr %1, ptr %6, align 8, !tbaa !145
  store ptr %2, ptr %7, align 8, !tbaa !245
  %10 = load ptr, ptr %5, align 8, !tbaa !9
  %11 = getelementptr inbounds nuw %struct.Curl_multi, ptr %10, i32 0, i32 35
  %12 = load i8, ptr %11, align 1
  %13 = lshr i8 %12, 4
  %14 = and i8 %13, 1
  %15 = zext i8 %14 to i32
  %16 = icmp ne i32 %15, 0
  br i1 %16, label %17, label %19

17:                                               ; preds = %3
  %18 = load ptr, ptr %7, align 8, !tbaa !245
  store i64 0, ptr %18, align 8, !tbaa !3
  store i32 0, ptr %4, align 4
  br label %92

19:                                               ; preds = %3
  %20 = load ptr, ptr %5, align 8, !tbaa !9
  %21 = getelementptr inbounds nuw %struct.Curl_multi, ptr %20, i32 0, i32 15
  %22 = load ptr, ptr %21, align 8, !tbaa !150
  %23 = icmp ne ptr %22, null
  br i1 %23, label %24, label %88

24:                                               ; preds = %19
  call void @llvm.lifetime.start.p0(i64 16, ptr %8) #9
  %25 = call { i64, i32 } @Curl_now()
  %26 = getelementptr inbounds nuw { i64, i32 }, ptr %8, i32 0, i32 0
  %27 = extractvalue { i64, i32 } %25, 0
  store i64 %27, ptr %26, align 8
  %28 = getelementptr inbounds nuw { i64, i32 }, ptr %8, i32 0, i32 1
  %29 = extractvalue { i64, i32 } %25, 1
  store i32 %29, ptr %28, align 8
  %30 = load ptr, ptr %5, align 8, !tbaa !9
  %31 = getelementptr inbounds nuw %struct.Curl_multi, ptr %30, i32 0, i32 15
  %32 = load ptr, ptr %31, align 8, !tbaa !150
  %33 = load i64, ptr @multi_timeout.tv_zero, align 8
  %34 = load i32, ptr getelementptr inbounds nuw ({ i64, i32 }, ptr @multi_timeout.tv_zero, i32 0, i32 1), align 8
  %35 = call ptr @Curl_splay(i64 %33, i32 %34, ptr noundef %32)
  %36 = load ptr, ptr %5, align 8, !tbaa !9
  %37 = getelementptr inbounds nuw %struct.Curl_multi, ptr %36, i32 0, i32 15
  store ptr %35, ptr %37, align 8, !tbaa !150
  %38 = load ptr, ptr %6, align 8, !tbaa !145
  %39 = load ptr, ptr %5, align 8, !tbaa !9
  %40 = getelementptr inbounds nuw %struct.Curl_multi, ptr %39, i32 0, i32 15
  %41 = load ptr, ptr %40, align 8, !tbaa !150
  %42 = icmp ne ptr %41, null
  br i1 %42, label %43, label %48

43:                                               ; preds = %24
  %44 = load ptr, ptr %5, align 8, !tbaa !9
  %45 = getelementptr inbounds nuw %struct.Curl_multi, ptr %44, i32 0, i32 15
  %46 = load ptr, ptr %45, align 8, !tbaa !150
  %47 = getelementptr inbounds nuw %struct.Curl_tree, ptr %46, i32 0, i32 4
  call void @llvm.memcpy.p0.p0.i64(ptr align 8 %38, ptr align 8 %47, i64 16, i1 false), !tbaa.struct !122
  br label %49

48:                                               ; preds = %24
  call void @llvm.memcpy.p0.p0.i64(ptr align 8 %38, ptr align 8 @multi_timeout.tv_zero, i64 16, i1 false), !tbaa.struct !122
  br label %49

49:                                               ; preds = %48, %43
  %50 = load ptr, ptr %5, align 8, !tbaa !9
  %51 = getelementptr inbounds nuw %struct.Curl_multi, ptr %50, i32 0, i32 15
  %52 = load ptr, ptr %51, align 8, !tbaa !150
  %53 = icmp ne ptr %52, null
  br i1 %53, label %54, label %85

54:                                               ; preds = %49
  %55 = load ptr, ptr %5, align 8, !tbaa !9
  %56 = getelementptr inbounds nuw %struct.Curl_multi, ptr %55, i32 0, i32 15
  %57 = load ptr, ptr %56, align 8, !tbaa !150
  %58 = getelementptr inbounds nuw %struct.Curl_tree, ptr %57, i32 0, i32 4
  %59 = getelementptr inbounds nuw { i64, i32 }, ptr %58, i32 0, i32 0
  %60 = load i64, ptr %59, align 8
  %61 = getelementptr inbounds nuw { i64, i32 }, ptr %58, i32 0, i32 1
  %62 = load i32, ptr %61, align 8
  %63 = getelementptr inbounds nuw { i64, i32 }, ptr %8, i32 0, i32 0
  %64 = load i64, ptr %63, align 8
  %65 = getelementptr inbounds nuw { i64, i32 }, ptr %8, i32 0, i32 1
  %66 = load i32, ptr %65, align 8
  %67 = call i64 @Curl_timediff_us(i64 %60, i32 %62, i64 %64, i32 %66)
  %68 = icmp sgt i64 %67, 0
  br i1 %68, label %69, label %85

69:                                               ; preds = %54
  call void @llvm.lifetime.start.p0(i64 8, ptr %9) #9
  %70 = load ptr, ptr %5, align 8, !tbaa !9
  %71 = getelementptr inbounds nuw %struct.Curl_multi, ptr %70, i32 0, i32 15
  %72 = load ptr, ptr %71, align 8, !tbaa !150
  %73 = getelementptr inbounds nuw %struct.Curl_tree, ptr %72, i32 0, i32 4
  %74 = getelementptr inbounds nuw { i64, i32 }, ptr %73, i32 0, i32 0
  %75 = load i64, ptr %74, align 8
  %76 = getelementptr inbounds nuw { i64, i32 }, ptr %73, i32 0, i32 1
  %77 = load i32, ptr %76, align 8
  %78 = getelementptr inbounds nuw { i64, i32 }, ptr %8, i32 0, i32 0
  %79 = load i64, ptr %78, align 8
  %80 = getelementptr inbounds nuw { i64, i32 }, ptr %8, i32 0, i32 1
  %81 = load i32, ptr %80, align 8
  %82 = call i64 @Curl_timediff_ceil(i64 %75, i32 %77, i64 %79, i32 %81)
  store i64 %82, ptr %9, align 8, !tbaa !3
  %83 = load i64, ptr %9, align 8, !tbaa !3
  %84 = load ptr, ptr %7, align 8, !tbaa !245
  store i64 %83, ptr %84, align 8, !tbaa !3
  call void @llvm.lifetime.end.p0(i64 8, ptr %9) #9
  br label %87

85:                                               ; preds = %54, %49
  %86 = load ptr, ptr %7, align 8, !tbaa !245
  store i64 0, ptr %86, align 8, !tbaa !3
  br label %87

87:                                               ; preds = %85, %69
  call void @llvm.lifetime.end.p0(i64 16, ptr %8) #9
  br label %91

88:                                               ; preds = %19
  %89 = load ptr, ptr %6, align 8, !tbaa !145
  call void @llvm.memcpy.p0.p0.i64(ptr align 8 %89, ptr align 8 @multi_timeout.tv_zero, i64 16, i1 false), !tbaa.struct !122
  %90 = load ptr, ptr %7, align 8, !tbaa !245
  store i64 -1, ptr %90, align 8, !tbaa !3
  br label %91

91:                                               ; preds = %88, %87
  store i32 0, ptr %4, align 4
  br label %92

92:                                               ; preds = %91, %17
  %93 = load i32, ptr %4, align 4
  ret i32 %93
}