; Function Attrs: nounwind uwtable
define internal fastcc void @multi_timeout(ptr noundef captures(none) %0, ptr noundef nonnull writeonly captures(none) %1, ptr noundef writeonly captures(none) initializes((0, 8)) %2) unnamed_addr #0 {
  %4 = getelementptr inbounds nuw i8, ptr %0, i64 649
  %5 = load i8, ptr %4, align 1
  %6 = and i8 %5, 16
  %.not = icmp eq i8 %6, 0
  br i1 %.not, label %7, label %36

7:                                                ; preds = %3
  %8 = getelementptr inbounds nuw i8, ptr %0, i64 264
  %9 = load ptr, ptr %8, align 8, !tbaa !137
  %.not19 = icmp eq ptr %9, null
  br i1 %.not19, label %35, label %10

10:                                               ; preds = %7
  %11 = tail call { i64, i32 } @Curl_now() #19
  %12 = extractvalue { i64, i32 } %11, 0
  %13 = extractvalue { i64, i32 } %11, 1
  %14 = load ptr, ptr %8, align 8, !tbaa !137
  %15 = tail call ptr @Curl_splay(i64 0, i32 0, ptr noundef %14) #19
  store ptr %15, ptr %8, align 8, !tbaa !137
  %.not20 = icmp eq ptr %15, null
  br i1 %.not20, label %18, label %16

16:                                               ; preds = %10
  %17 = getelementptr inbounds nuw i8, ptr %15, i64 32
  tail call void @llvm.memcpy.p0.p0.i64(ptr noundef nonnull align 8 dereferenceable(16) %1, ptr noundef nonnull align 8 dereferenceable(16) %17, i64 16, i1 false), !tbaa.struct !116
  br label %19

18:                                               ; preds = %10
  tail call void @llvm.memset.p0.i64(ptr noundef nonnull align 8 dereferenceable(16) %1, i8 0, i64 16, i1 false)
  br label %19

19:                                               ; preds = %18, %16
  %20 = load ptr, ptr %8, align 8, !tbaa !137
  %.not21 = icmp eq ptr %20, null
  br i1 %.not21, label %36, label %21

21:                                               ; preds = %19
  %22 = getelementptr inbounds nuw i8, ptr %20, i64 32
  %23 = load i64, ptr %22, align 8
  %24 = getelementptr inbounds nuw i8, ptr %20, i64 40
  %25 = load i32, ptr %24, align 8
  %26 = tail call i64 @Curl_timediff_us(i64 %23, i32 %25, i64 %12, i32 %13) #19
  %27 = icmp sgt i64 %26, 0
  br i1 %27, label %28, label %36

28:                                               ; preds = %21
  %29 = load ptr, ptr %8, align 8, !tbaa !137
  %30 = getelementptr inbounds nuw i8, ptr %29, i64 32
  %31 = load i64, ptr %30, align 8
  %32 = getelementptr inbounds nuw i8, ptr %29, i64 40
  %33 = load i32, ptr %32, align 8
  %34 = tail call i64 @Curl_timediff_ceil(i64 %31, i32 %33, i64 %12, i32 %13) #19
  br label %36

35:                                               ; preds = %7
  tail call void @llvm.memset.p0.i64(ptr noundef nonnull align 8 dereferenceable(16) %1, i8 0, i64 16, i1 false)
  br label %36

36:                                               ; preds = %35, %19, %21, %28, %3
  %storemerge23 = phi i64 [ 0, %3 ], [ -1, %35 ], [ %34, %28 ], [ 0, %21 ], [ 0, %19 ]
  store i64 %storemerge23, ptr %2, align 8, !tbaa !115
  ret void
}